target datalayout = "e-m:e-p270:32:32-p271:32:32-p272:64:64-i64:64-i128:128-f80:128-n8:16:32:64-S128"
target triple = "x86_64-pc-linux-gnu"

%"class.grpc_core::StringMatcher" = type <{ i32, [4 x i8], %"class.std::__cxx11::basic_string", %"class.std::unique_ptr", i8, [7 x i8] }>
%"class.std::__cxx11::basic_string" = type { %"struct.std::__cxx11::basic_string<char>::_Alloc_hider", i64, %union.anon.1 }
%"struct.std::__cxx11::basic_string<char>::_Alloc_hider" = type { ptr }
%union.anon.1 = type { i64, [8 x i8] }
%"class.std::unique_ptr" = type { %"struct.std::__uniq_ptr_data" }
%"struct.std::__uniq_ptr_data" = type { %"class.std::__uniq_ptr_impl" }
%"class.std::__uniq_ptr_impl" = type { %"class.std::tuple" }
%"class.std::tuple" = type { %"struct.std::_Tuple_impl" }
%"struct.std::_Tuple_impl" = type { %"struct.std::_Head_base.3" }
%"struct.std::_Head_base.3" = type { ptr }
%"class.std::basic_string_view" = type { i64, ptr }
%"class.grpc_core::HeaderMatcher" = type <{ %"class.std::__cxx11::basic_string", i32, [4 x i8], %"class.grpc_core::StringMatcher", i64, i64, i8, i8, [6 x i8] }>

@_ZN9grpc_core13StringMatcherC1EOS0_ = unnamed_addr alias void (ptr, ptr), ptr @_ZN9grpc_core13StringMatcherC2EOS0_
@_ZN9grpc_core13HeaderMatcherC1ESt17basic_string_viewIcSt11char_traitsIcEENS0_4TypeENS_13StringMatcherEb = unnamed_addr alias void (ptr, i64, ptr, i32, ptr, i1), ptr @_ZN9grpc_core13HeaderMatcherC2ESt17basic_string_viewIcSt11char_traitsIcEENS0_4TypeENS_13StringMatcherEb

; Function Attrs: mustprogress nounwind uwtable
define linkonce_odr noundef i32 @_ZNK9grpc_core13StringMatcher4typeEv(ptr noundef nonnull align 8 dereferenceable(49) %0) #7 comdat align 2 {
  %2 = alloca ptr, align 8
  store ptr %0, ptr %2, align 8, !tbaa !48
  %3 = load ptr, ptr %2, align 8
  %4 = getelementptr inbounds nuw %"class.grpc_core::StringMatcher", ptr %3, i32 0, i32 0
  %5 = load i32, ptr %4, align 8, !tbaa !53
  ret i32 %5
}

; Function Attrs: mustprogress uwtable
define void @_ZN9grpc_core13HeaderMatcher23CreateFromStringMatcherESt17basic_string_viewIcSt11char_traitsIcEENS_13StringMatcherEb(ptr dead_on_unwind noalias writable sret(%"class.grpc_core::HeaderMatcher") align 8 %0, i64 %1, ptr %2, ptr noundef %3, i1 noundef zeroext %4) #4 align 2 personality ptr @__gxx_personality_v0 {
  %6 = alloca ptr, align 8
  %7 = alloca %"class.std::basic_string_view", align 8
  %8 = alloca ptr, align 8
  %9 = alloca i8, align 1
  %10 = alloca i32, align 4
  %11 = alloca %"class.std::basic_string_view", align 8
  %12 = alloca %"class.grpc_core::StringMatcher", align 8
  %13 = alloca ptr, align 8
  %14 = alloca i32, align 4
  store ptr %0, ptr %6, align 8
  %15 = getelementptr inbounds nuw { i64, ptr }, ptr %7, i32 0, i32 0
  store i64 %1, ptr %15, align 8
  %16 = getelementptr inbounds nuw { i64, ptr }, ptr %7, i32 0, i32 1
  store ptr %2, ptr %16, align 8
  store ptr %3, ptr %8, align 8, !tbaa !48
  %17 = zext i1 %4 to i8
  store i8 %17, ptr %9, align 1, !tbaa !7
  call void @llvm.lifetime.start.p0(i64 4, ptr %10) #3
  %18 = call noundef i32 @_ZNK9grpc_core13StringMatcher4typeEv(ptr noundef nonnull align 8 dereferenceable(49) %3)
  store i32 %18, ptr %10, align 4, !tbaa !81
  call void @llvm.memcpy.p0.p0.i64(ptr align 8 %11, ptr align 8 %7, i64 16, i1 false), !tbaa.struct !9
  %19 = load i32, ptr %10, align 4, !tbaa !81
  call void @_ZN9grpc_core13StringMatcherC1EOS0_(ptr noundef nonnull align 8 dereferenceable(49) %12, ptr noundef nonnull align 8 dereferenceable(49) %3) #3
  %20 = load i8, ptr %9, align 1, !tbaa !7, !range !15, !noundef !16
  %21 = trunc i8 %20 to i1
  %22 = getelementptr inbounds nuw { i64, ptr }, ptr %11, i32 0, i32 0
  %23 = load i64, ptr %22, align 8
  %24 = getelementptr inbounds nuw { i64, ptr }, ptr %11, i32 0, i32 1
  %25 = load ptr, ptr %24, align 8
  invoke void @_ZN9grpc_core13HeaderMatcherC1ESt17basic_string_viewIcSt11char_traitsIcEENS0_4TypeENS_13StringMatcherEb(ptr noundef nonnull align 8 dereferenceable(114) %0, i64 %23, ptr %25, i32 noundef %19, ptr noundef %12, i1 noundef zeroext %21)
          to label %26 unwind label %27

26:                                               ; preds = %5
  call void @_ZN9grpc_core13StringMatcherD2Ev(ptr noundef nonnull align 8 dereferenceable(49) %12) #3
  call void @llvm.lifetime.end.p0(i64 4, ptr %10) #3
  ret void

27:                                               ; preds = %5
  %28 = landingpad { ptr, i32 }
          cleanup
  %29 = extractvalue { ptr, i32 } %28, 0
  store ptr %29, ptr %13, align 8
  %30 = extractvalue { ptr, i32 } %28, 1
  store i32 %30, ptr %14, align 4
  call void @_ZN9grpc_core13StringMatcherD2Ev(ptr noundef nonnull align 8 dereferenceable(49) %12) #3
  call void @llvm.lifetime.end.p0(i64 4, ptr %10) #3
  br label %31

31:                                               ; preds = %27
  %32 = load ptr, ptr %13, align 8
  %33 = load i32, ptr %14, align 4
  %34 = insertvalue { ptr, i32 } poison, ptr %32, 0
  %35 = insertvalue { ptr, i32 } %34, i32 %33, 1
  resume { ptr, i32 } %35
}