; Function Attrs: mustprogress uwtable
define void @_ZN9grpc_core13HeaderMatcher23CreateFromStringMatcherESt17basic_string_viewIcSt11char_traitsIcEENS_13StringMatcherEb(ptr dead_on_unwind noalias writable sret(%"class.grpc_core::HeaderMatcher") align 8 %0, i64 %1, ptr %2, ptr noundef %3, i1 noundef zeroext %4) local_unnamed_addr #3 align 2 personality ptr @__gxx_personality_v0 {
  %6 = alloca %"class.grpc_core::StringMatcher", align 8
  %7 = load i32, ptr %3, align 8, !tbaa !37
  call void @_ZN9grpc_core13StringMatcherC1EOS0_(ptr noundef nonnull align 8 dereferenceable(49) %6, ptr noundef nonnull align 8 dereferenceable(49) %3) #20
  invoke void @_ZN9grpc_core13HeaderMatcherC1ESt17basic_string_viewIcSt11char_traitsIcEENS0_4TypeENS_13StringMatcherEb(ptr noundef nonnull align 8 dereferenceable(114) %0, i64 %1, ptr %2, i32 noundef %7, ptr noundef nonnull %6, i1 noundef zeroext %4)
          to label %8 unwind label %20

8:                                                ; preds = %5
  %9 = getelementptr inbounds nuw i8, ptr %6, i64 40
  %10 = load ptr, ptr %9, align 8, !tbaa !18
  %.not.i.i = icmp eq ptr %10, null
  br i1 %.not.i.i, label %_ZNSt10unique_ptrIN3re23RE2ESt14default_deleteIS1_EED2Ev.exit.i, label %_ZNKSt14default_deleteIN3re23RE2EEclEPS1_.exit.i.i

_ZNKSt14default_deleteIN3re23RE2EEclEPS1_.exit.i.i: ; preds = %8
  call void @_ZN3re23RE2D1Ev(ptr noundef nonnull align 8 dereferenceable(212) %10) #20
  call void @_ZdlPvm(ptr noundef nonnull %10, i64 noundef 216) #23
  br label %_ZNSt10unique_ptrIN3re23RE2ESt14default_deleteIS1_EED2Ev.exit.i

_ZNSt10unique_ptrIN3re23RE2ESt14default_deleteIS1_EED2Ev.exit.i: ; preds = %_ZNKSt14default_deleteIN3re23RE2EEclEPS1_.exit.i.i, %8
  store ptr null, ptr %9, align 8, !tbaa !18
  %11 = getelementptr inbounds nuw i8, ptr %6, i64 8
  %12 = load ptr, ptr %11, align 8, !tbaa !11
  %13 = getelementptr inbounds nuw i8, ptr %6, i64 24
  %14 = icmp eq ptr %12, %13
  br i1 %14, label %_ZNKSt7__cxx1112basic_stringIcSt11char_traitsIcESaIcEE11_M_is_localEv.exit.thread.i.i.i, label %_ZNKSt7__cxx1112basic_stringIcSt11char_traitsIcESaIcEE11_M_is_localEv.exit.i.i.i

_ZNKSt7__cxx1112basic_stringIcSt11char_traitsIcESaIcEE11_M_is_localEv.exit.thread.i.i.i: ; preds = %_ZNSt10unique_ptrIN3re23RE2ESt14default_deleteIS1_EED2Ev.exit.i
  %15 = getelementptr inbounds nuw i8, ptr %6, i64 16
  %16 = load i64, ptr %15, align 8, !tbaa !14
  %17 = icmp ult i64 %16, 16
  call void @llvm.assume(i1 %17)
  br label %_ZN9grpc_core13StringMatcherD2Ev.exit

_ZNKSt7__cxx1112basic_stringIcSt11char_traitsIcESaIcEE11_M_is_localEv.exit.i.i.i: ; preds = %_ZNSt10unique_ptrIN3re23RE2ESt14default_deleteIS1_EED2Ev.exit.i
  %18 = load i64, ptr %13, align 8, !tbaa !13
  %19 = add i64 %18, 1
  call void @_ZdlPvm(ptr noundef %12, i64 noundef %19) #23
  br label %_ZN9grpc_core13StringMatcherD2Ev.exit

_ZN9grpc_core13StringMatcherD2Ev.exit:            ; preds = %_ZNKSt7__cxx1112basic_stringIcSt11char_traitsIcESaIcEE11_M_is_localEv.exit.thread.i.i.i, %_ZNKSt7__cxx1112basic_stringIcSt11char_traitsIcESaIcEE11_M_is_localEv.exit.i.i.i
  ret void

20:                                               ; preds = %5
  %21 = landingpad { ptr, i32 }
          cleanup
  call void @_ZN9grpc_core13StringMatcherD2Ev(ptr noundef nonnull align 8 dereferenceable(49) %6) #20
  resume { ptr, i32 } %21
}